target datalayout = "e-m:e-p270:32:32-p271:32:32-p272:64:64-i64:64-i128:128-f80:128-n8:16:32:64-S128"
target triple = "x86_64-pc-linux-gnu"

%struct.ident_t = type { i32, i32, i32, i32, ptr }
%class.FreeEnergyDispatch = type { %struct.gmx_grppairener_t, %"class.gmx::ThreadedForceBuffer", %"class.gmx::ThreadedForceBuffer" }
%struct.gmx_grppairener_t = type { i32, %"struct.gmx::EnumerationArray" }
%"struct.gmx::EnumerationArray" = type { [5 x %"class.std::vector"] }
%"class.std::vector" = type { %"struct.std::_Vector_base" }
%"struct.std::_Vector_base" = type { %"struct.std::_Vector_base<float, std::allocator<float>>::_Vector_impl" }
%"struct.std::_Vector_base<float, std::allocator<float>>::_Vector_impl" = type { %"struct.std::_Vector_base<float, std::allocator<float>>::_Vector_impl_data" }
%"struct.std::_Vector_base<float, std::allocator<float>>::_Vector_impl_data" = type { ptr, ptr, ptr }
%"class.gmx::ThreadedForceBuffer" = type { i8, %"class.std::vector.0", %"class.std::vector.5", %"class.std::vector.10" }
%"class.std::vector.0" = type { %"struct.std::_Vector_base.1" }
%"struct.std::_Vector_base.1" = type { %"struct.std::_Vector_base<std::unique_ptr<gmx::ThreadForceBuffer<RVec>>, std::allocator<std::unique_ptr<gmx::ThreadForceBuffer<RVec>>>>::_Vector_impl" }
%"struct.std::_Vector_base<std::unique_ptr<gmx::ThreadForceBuffer<RVec>>, std::allocator<std::unique_ptr<gmx::ThreadForceBuffer<RVec>>>>::_Vector_impl" = type { %"struct.std::_Vector_base<std::unique_ptr<gmx::ThreadForceBuffer<RVec>>, std::allocator<std::unique_ptr<gmx::ThreadForceBuffer<RVec>>>>::_Vector_impl_data" }
%"struct.std::_Vector_base<std::unique_ptr<gmx::ThreadForceBuffer<RVec>>, std::allocator<std::unique_ptr<gmx::ThreadForceBuffer<RVec>>>>::_Vector_impl_data" = type { ptr, ptr, ptr }
%"class.std::vector.5" = type { %"struct.std::_Vector_base.6" }
%"struct.std::_Vector_base.6" = type { %"struct.std::_Vector_base<int, std::allocator<int>>::_Vector_impl" }
%"struct.std::_Vector_base<int, std::allocator<int>>::_Vector_impl" = type { %"struct.std::_Vector_base<int, std::allocator<int>>::_Vector_impl_data" }
%"struct.std::_Vector_base<int, std::allocator<int>>::_Vector_impl_data" = type { ptr, ptr, ptr }
%"class.std::vector.10" = type { %"struct.std::_Vector_base.11" }
%"struct.std::_Vector_base.11" = type { %"struct.std::_Vector_base<std::array<unsigned long, 2>, std::allocator<std::array<unsigned long, 2>>>::_Vector_impl" }
%"struct.std::_Vector_base<std::array<unsigned long, 2>, std::allocator<std::array<unsigned long, 2>>>::_Vector_impl" = type { %"struct.std::_Vector_base<std::array<unsigned long, 2>, std::allocator<std::array<unsigned long, 2>>>::_Vector_impl_data" }
%"struct.std::_Vector_base<std::array<unsigned long, 2>, std::allocator<std::array<unsigned long, 2>>>::_Vector_impl_data" = type { ptr, ptr, ptr }

@2 = private unnamed_addr constant %struct.ident_t { i32 0, i32 2, i32 0, i32 22, ptr @0 }, align 8

; Function Attrs: mustprogress uwtable
define void @_ZN18FreeEnergyDispatch27setupFepThreadedForceBufferEiRK12PairlistSets(ptr noundef nonnull align 8 dereferenceable(288) %0, i32 noundef %1, ptr noundef nonnull align 8 dereferenceable(64) %2) #0 align 2 {
  %4 = alloca ptr, align 8
  %5 = alloca i32, align 4
  %6 = alloca ptr, align 8
  %7 = alloca i32, align 4
  %8 = call i32 @__kmpc_global_thread_num(ptr @2)
  store ptr %0, ptr %4, align 8
  store i32 %1, ptr %5, align 4
  store ptr %2, ptr %6, align 8
  %9 = load ptr, ptr %4, align 8
  %10 = getelementptr inbounds %class.FreeEnergyDispatch, ptr %9, i32 0, i32 1
  %11 = call noundef i32 @_ZNK3gmx19ThreadedForceBufferINS_11BasicVectorIfEEE16numThreadBuffersEv(ptr noundef nonnull align 8 dereferenceable(80) %10)
  store i32 %11, ptr %7, align 4
  %12 = load i32, ptr %7, align 4
  call void @__kmpc_push_num_threads(ptr @2, i32 %8, i32 %12)
  %13 = load ptr, ptr %6, align 8
  call void (ptr, i32, ptr, ...) @__kmpc_fork_call(ptr @2, i32 4, ptr @_ZN18FreeEnergyDispatch27setupFepThreadedForceBufferEiRK12PairlistSets.omp_outlined, ptr %7, ptr %9, ptr %5, ptr %13)
  %14 = getelementptr inbounds %class.FreeEnergyDispatch, ptr %9, i32 0, i32 1
  call void @_ZN3gmx19ThreadedForceBufferINS_11BasicVectorIfEEE14setupReductionEv(ptr noundef nonnull align 8 dereferenceable(80) %14)
  ret void
}