; Function Attrs: mustprogress uwtable
define void @_ZN18FreeEnergyDispatch27setupFepThreadedForceBufferEiRK12PairlistSets(ptr noundef nonnull align 8 dereferenceable(288) %0, i32 noundef %1, ptr noundef nonnull align 8 dereferenceable(64) %2) local_unnamed_addr #0 align 2 {
  %4 = alloca i32, align 4
  %5 = alloca i32, align 4
  %6 = tail call i32 @__kmpc_global_thread_num(ptr nonnull @2)
  store i32 %1, ptr %4, align 4
  %7 = getelementptr inbounds i8, ptr %0, i64 128
  %8 = tail call noundef i32 @_ZNK3gmx19ThreadedForceBufferINS_11BasicVectorIfEEE16numThreadBuffersEv(ptr noundef nonnull align 8 dereferenceable(80) %7)
  store i32 %8, ptr %5, align 4
  tail call void @__kmpc_push_num_threads(ptr nonnull @2, i32 %6, i32 %8)
  call void (ptr, i32, ptr, ...) @__kmpc_fork_call(ptr nonnull @2, i32 4, ptr nonnull @_ZN18FreeEnergyDispatch27setupFepThreadedForceBufferEiRK12PairlistSets.omp_outlined, ptr nonnull %5, ptr nonnull %0, ptr nonnull %4, ptr nonnull %2)
  call void @_ZN3gmx19ThreadedForceBufferINS_11BasicVectorIfEEE14setupReductionEv(ptr noundef nonnull align 8 dereferenceable(80) %7)
  ret void
}